Certificate:
    Data:
        Version: 3 (0x2)
        Serial Number: 1 (0x1)
    Signature Algorithm: sha256WithRSAEncryption
        Issuer: C=CA, ST=British Columbia, L=Victoria, O=University of Victoria, OU=School of Earth and Ocean Sciences, CN=Jody Klymak/emailAddress=jklymak@uvic.ca
        Validity
            Not Before: Nov 24 19:24:48 2015 GMT
            Not After : Aug 20 19:24:48 2018 GMT
        Subject: C=CA, ST=British Columbia, L=Victoria, O=University of Victoria, CN=Jody Klymak
        Subject Public Key Info:
            Public Key Algorithm: rsaEncryption
                Public-Key: (2048 bit)
                Modulus:
                    00:da:3b:1d:c3:6c:ec:fe:e5:c6:66:9c:84:8b:65:
                    f6:78:7a:9e:2d:83:fb:46:00:f7:2b:67:14:1d:c8:
                    89:e4:70:10:cf:a9:c8:db:d8:71:77:c2:ef:6a:c6:
                    45:8b:9c:29:62:79:1c:26:29:de:f3:b6:8b:2a:87:
                    3e:09:c9:3a:ea:60:0c:46:fe:a4:0e:88:a4:2c:94:
                    f4:9b:c3:63:fa:00:8e:4a:34:94:ca:7d:67:eb:b0:
                    19:ad:2d:7e:6b:04:40:b9:77:94:03:39:e5:1e:75:
                    35:b7:7e:6b:ac:fa:f3:f4:03:32:8b:1a:89:c5:56:
                    df:01:63:ad:6e:24:6e:46:4b:7d:42:46:1e:d0:06:
                    4d:7e:24:a8:aa:6d:f8:bf:eb:06:a0:0a:5d:43:34:
                    bb:c1:cc:8a:50:48:67:38:a0:d3:75:a9:b2:90:a8:
                    f0:ae:98:e8:9b:35:29:b3:88:64:bb:88:d9:b3:ca:
                    90:1f:c9:97:72:00:d6:b9:87:21:f2:75:19:4c:43:
                    33:85:ad:8c:4f:9e:e7:de:06:4f:fe:7d:fd:32:7b:
                    a3:81:e6:02:d0:59:a6:64:e7:2b:15:00:7a:26:e3:
                    47:98:fd:a9:67:34:e0:7e:9e:17:12:7d:f5:a4:18:
                    1b:ed:d8:04:ad:15:de:1a:33:d0:a2:6a:8c:64:2a:
                    e3:29
                Exponent: 65537 (0x10001)
        X509v3 extensions:
            X509v3 Subject Key Identifier: 
                32:98:CF:BE:67:D1:DB:3A:1D:1B:B8:74:27:39:7A:31:DB:A0:4D:0B
            X509v3 Authority Key Identifier: 
                keyid:00:7A:1E:F5:81:B0:09:48:71:F5:AA:65:72:69:75:15:CA:A5:A1:21

            X509v3 Basic Constraints: 
                CA:FALSE
            X509v3 Key Usage: 
                Digital Signature, Key Encipherment
            X509v3 Subject Alternative Name: 
                DNS:valdez.seos.uvic.ca, DNS:hornby.seos.uvic.ca
            Netscape Comment: 
                OpenSSL Generated Certificate
    Signature Algorithm: sha256WithRSAEncryption
         50:b2:f0:36:62:38:49:9b:8f:5c:8f:b1:32:3a:dd:8c:bb:8d:
         6e:b6:5f:cf:23:13:e1:28:d9:63:d1:38:47:0a:9b:cf:35:07:
         c2:80:7a:ff:4c:94:33:27:89:e8:c1:3b:7b:43:e4:07:05:e7:
         92:a7:10:3b:6e:5f:cb:02:d5:7a:1a:3f:91:59:5e:4c:ce:76:
         95:83:58:f8:07:7d:e6:1e:53:bf:4d:06:13:89:9d:0b:96:c7:
         da:af:8b:97:5e:62:41:e5:68:a8:ba:a9:e4:e5:d1:35:fa:c1:
         04:43:d0:01:b4:3a:38:35:b0:45:a5:eb:18:9e:cf:56:05:84:
         44:c6:6c:f0:c5:cf:3f:62:e9:f8:84:04:17:e7:5a:e8:f8:e4:
         e3:4d:91:55:c4:f5:b1:1e:0c:b3:77:35:49:f9:4f:03:17:89:
         32:b0:d9:ff:64:2c:0c:c2:15:b0:60:f6:ac:54:45:fd:22:c2:
         55:bc:73:6f:41:19:ba:34:f3:e0:41:79:4b:73:32:84:e0:bf:
         88:2e:f1:43:ba:68:43:ab:c0:82:03:95:65:e8:4a:f9:1d:44:
         82:98:5c:ce:41:ef:9d:43:d0:b4:ea:84:b3:43:d3:23:16:8e:
         a0:bc:e6:25:4f:ed:52:f9:fb:97:ce:4b:d2:5c:f3:21:98:9c:
         f6:f9:d1:34:e4:27:1c:15:c3:e6:55:3d:1c:29:a3:d4:0c:22:
         ca:58:e7:7d:f1:ae:43:20:e9:8c:1f:e0:3e:f7:fc:31:37:4d:
         28:53:ca:44:b7:36:45:9c:9d:14:e8:a8:b9:d9:68:8b:27:42:
         33:f0:d8:b7:28:eb:07:1e:7a:81:cf:ed:7a:a4:8d:2b:15:c8:
         a9:95:ee:21:27:9d:eb:93:74:33:73:b6:d3:b7:ae:55:c8:6d:
         2b:ca:06:ed:ec:7b:f5:df:51:77:26:e1:89:f8:60:8c:78:99:
         a2:39:ec:00:b1:0f:ec:b2:9a:da:05:7a:61:24:7b:4d:12:6b:
         6d:ce:b1:1b:ef:67:20:2a:d3:ea:ce:ff:31:df:bf:7a:e9:32:
         90:7b:82:5b:3a:4d:ad:c7:33:9b:9d:23:95:32:c7:63:20:1a:
         32:02:46:0b:05:fc:a2:e6:07:ec:85:58:d4:80:78:aa:65:e0:
         ba:e0:52:0c:2f:31:bd:0e:56:67:90:51:cc:eb:3f:d7:65:84:
         77:2f:cd:a3:a9:77:ce:dd:9c:96:71:e3:d6:4a:5d:84:be:b8:
         26:5b:b1:49:e5:08:5e:2a:61:4c:0c:48:29:a9:99:35:31:20:
         17:b7:89:ab:7d:c3:d1:df:06:11:b0:22:1a:ec:17:92:06:be:
         e9:f1:4b:f2:84:f9:19:84
-----BEGIN CERTIFICATE-----
MIIFbDCCA1SgAwIBAgIBATANBgkqhkiG9w0BAQsFADCBvzELMAkGA1UEBhMCQ0Ex
GTAXBgNVBAgMEEJyaXRpc2ggQ29sdW1iaWExETAPBgNVBAcMCFZpY3RvcmlhMR8w
HQYDVQQKDBZVbml2ZXJzaXR5IG9mIFZpY3RvcmlhMSswKQYDVQQLDCJTY2hvb2wg
b2YgRWFydGggYW5kIE9jZWFuIFNjaWVuY2VzMRQwEgYDVQQDDAtKb2R5IEtseW1h
azEeMBwGCSqGSIb3DQEJARYPamtseW1ha0B1dmljLmNhMB4XDTE1MTEyNDE5MjQ0
OFoXDTE4MDgyMDE5MjQ0OFowcjELMAkGA1UEBhMCQ0ExGTAXBgNVBAgMEEJyaXRp
c2ggQ29sdW1iaWExETAPBgNVBAcMCFZpY3RvcmlhMR8wHQYDVQQKDBZVbml2ZXJz
aXR5IG9mIFZpY3RvcmlhMRQwEgYDVQQDDAtKb2R5IEtseW1hazCCASIwDQYJKoZI
hvcNAQEBBQADggEPADCCAQoCggEBANo7HcNs7P7lxmachItl9nh6ni2D+0YA9ytn
FB3IieRwEM+pyNvYcXfC72rGRYucKWJ5HCYp3vO2iyqHPgnJOupgDEb+pA6IpCyU
9JvDY/oAjko0lMp9Z+uwGa0tfmsEQLl3lAM55R51Nbd+a6z68/QDMosaicVW3wFj
rW4kbkZLfUJGHtAGTX4kqKpt+L/rBqAKXUM0u8HMilBIZzig03WpspCo8K6Y6Js1
KbOIZLuI2bPKkB/Jl3IA1rmHIfJ1GUxDM4WtjE+e594GT/59/TJ7o4HmAtBZpmTn
KxUAeibjR5j9qWc04H6eFxJ99aQYG+3YBK0V3hoz0KJqjGQq4ykCAwEAAaOBvjCB
uzAdBgNVHQ4EFgQUMpjPvmfR2zodG7h0Jzl6MdugTQswHwYDVR0jBBgwFoAUAHoe
9YGwCUhx9aplcml1FcqloSEwCQYDVR0TBAIwADALBgNVHQ8EBAMCBaAwMwYDVR0R
BCwwKoITdmFsZGV6LnNlb3MudXZpYy5jYYITaG9ybmJ5LnNlb3MudXZpYy5jYTAs
BglghkgBhvhCAQ0EHxYdT3BlblNTTCBHZW5lcmF0ZWQgQ2VydGlmaWNhdGUwDQYJ
KoZIhvcNAQELBQADggIBAFCy8DZiOEmbj1yPsTI63Yy7jW62X88jE+Eo2WPROEcK
m881B8KAev9MlDMniejBO3tD5AcF55KnEDtuX8sC1XoaP5FZXkzOdpWDWPgHfeYe
U79NBhOJnQuWx9qvi5deYkHlaKi6qeTl0TX6wQRD0AG0Ojg1sEWl6xiez1YFhETG
bPDFzz9i6fiEBBfnWuj45ONNkVXE9bEeDLN3NUn5TwMXiTKw2f9kLAzCFbBg9qxU
Rf0iwlW8c29BGbo08+BBeUtzMoTgv4gu8UO6aEOrwIIDlWXoSvkdRIKYXM5B751D
0LTqhLND0yMWjqC85iVP7VL5+5fOS9Jc8yGYnPb50TTkJxwVw+ZVPRwpo9QMIspY
533xrkMg6Ywf4D73/DE3TShTykS3NkWcnRToqLnZaIsnQjPw2Lco6wceeoHP7Xqk
jSsVyKmV7iEnneuTdDNzttO3rlXIbSvKBu3se/XfUXcm4Yn4YIx4maI57ACxD+yy
mtoFemEke00Sa23OsRvvZyAq0+rO/zHfv3rpMpB7gls6Ta3HM5udI5Uyx2MgGjIC
RgsF/KLmB+yFWNSAeKpl4LrgUgwvMb0OVmeQUczrP9dlhHcvzaOpd87dnJZx49ZK
XYS+uCZbsUnlCF4qYUwMSCmpmTUxIBe3iat9w9HfBhGwIhrsF5IGvunxS/KE+RmE
-----END CERTIFICATE-----
