Certificate:
    Data:
        Version: 3 (0x2)
        Serial Number: 2 (0x2)
    Signature Algorithm: sha256WithRSAEncryption
        Issuer: C=CA, ST=British Columbia, L=Victoria, O=University of Victoria, OU=School of Earth and Ocean Sciences, CN=Jody Klymak/emailAddress=jklymak@uvic.ca
        Validity
            Not Before: Nov 24 19:28:24 2015 GMT
            Not After : Aug 20 19:28:24 2018 GMT
        Subject: C=CA, ST=British Columbia, L=Victoria, O=University of Victoria, CN=Jody Klymak
        Subject Public Key Info:
            Public Key Algorithm: rsaEncryption
                Public-Key: (2048 bit)
                Modulus:
                    00:cf:9d:12:e3:29:8c:31:60:23:2f:7a:ae:aa:97:
                    54:c9:57:cb:a0:96:df:47:27:02:62:ba:54:27:5b:
                    42:af:75:c9:ff:92:0f:2a:41:29:b7:3f:fc:63:84:
                    6d:9f:ff:db:44:6e:b2:12:0b:bc:84:8c:30:e2:00:
                    1b:b2:09:f4:6c:e8:47:0e:a2:a6:80:2a:bd:c8:9c:
                    9a:61:e5:76:eb:43:84:56:28:7a:76:5e:59:05:2d:
                    d1:14:3c:6b:2b:39:ef:f7:29:99:5f:dc:8f:23:7e:
                    c8:bd:8e:ce:b0:96:22:ce:4c:f4:0b:b4:b0:0b:49:
                    8a:f0:9d:be:72:ba:08:15:40:8a:7a:61:30:0e:71:
                    7b:d8:ad:67:71:93:ad:a1:30:18:ea:32:72:b1:87:
                    17:11:25:9d:85:7b:59:1d:fa:b3:4d:af:d9:bc:85:
                    7d:66:69:d1:ae:08:e3:e2:57:41:76:f3:d5:81:2a:
                    b1:ff:10:b3:72:3d:cc:e1:3e:89:3d:72:f4:68:7f:
                    41:0d:71:14:8d:ef:1f:da:0e:cd:76:a2:8b:27:9f:
                    39:4c:5b:1a:82:28:ec:87:96:f8:15:3b:67:2a:20:
                    9c:0b:f1:78:ad:46:95:33:07:6e:7c:2d:14:26:65:
                    fb:80:59:3f:80:3d:79:ab:62:b3:1a:8d:71:91:50:
                    6c:13
                Exponent: 65537 (0x10001)
        X509v3 extensions:
            X509v3 Subject Key Identifier: 
                04:D3:62:F2:B4:E0:4D:90:B1:A5:8C:86:10:DF:C9:56:DA:53:99:FF
            X509v3 Authority Key Identifier: 
                keyid:98:F4:20:1F:B1:30:5D:E0:18:4D:FA:82:15:4F:C8:B2:E5:E3:AC:FF

            X509v3 Basic Constraints: 
                CA:FALSE
            X509v3 Key Usage: 
                Digital Signature, Key Encipherment
            X509v3 Subject Alternative Name: 
                DNS:valdez.seos.uvic.ca, DNS:hornby.seos.uvic.ca
            Netscape Comment: 
                OpenSSL Generated Certificate
    Signature Algorithm: sha256WithRSAEncryption
         13:3f:2f:a3:84:19:6f:00:09:0e:64:2b:7b:9d:d8:eb:a1:20:
         9f:ec:e6:92:92:0c:5a:b3:aa:fe:9e:ab:48:5e:85:99:ae:fc:
         12:81:12:0e:62:ff:cc:c4:d1:04:e3:89:2b:e6:a0:f3:70:bf:
         0c:54:71:6e:4a:1e:5b:ea:7d:90:ff:5d:a6:7a:ea:d9:02:35:
         61:fc:2e:59:3d:69:57:2b:18:e2:f4:ff:2e:8c:1f:e5:43:69:
         20:e7:d3:8f:02:d7:6c:9a:22:bf:b0:3b:65:41:82:22:a1:f9:
         c8:4d:b1:31:4f:a1:25:c9:69:ed:c1:55:65:15:ab:e3:b1:ff:
         11:78:67:57:74:7e:7d:96:e5:dd:ac:ad:ae:40:00:45:85:ab:
         93:ad:32:41:a7:90:ad:11:6e:14:9e:11:8f:21:13:35:ad:bd:
         5a:79:c2:1e:3c:4e:16:3b:87:05:03:23:5f:95:d5:8b:dc:7a:
         80:47:4b:98:f9:bb:4b:d0:1a:d4:15:07:ef:cd:ac:fa:e4:3c:
         c9:1c:bb:33:9f:38:e3:11:a1:6b:c4:07:3f:d9:77:97:fe:11:
         a2:5f:21:f6:b1:d7:5d:14:42:b8:d3:c8:0b:cf:91:91:9b:e6:
         74:6b:a3:13:f6:97:86:09:0a:b2:09:1b:9b:67:f6:fb:8c:06:
         79:38:01:55:91:68:f6:7b:f5:67:72:51:a0:9f:69:f5:a1:26:
         02:dd:56:3c:f6:f6:67:f7:90:8d:48:89:9a:65:08:07:68:ec:
         68:44:96:ab:3a:20:d5:d9:08:bc:e2:cf:8b:fc:9e:e1:1e:8a:
         5f:fe:67:fa:06:a3:52:a1:a4:a3:7f:f5:ca:b3:20:eb:08:bd:
         f3:7d:02:17:43:b7:14:f2:46:3d:98:60:03:73:6a:46:c6:16:
         10:27:93:82:a8:94:97:b1:e9:91:57:ae:de:af:ab:b5:d9:59:
         62:f1:5e:98:93:5f:1f:22:09:5c:9c:56:05:a0:f6:db:73:21:
         f6:f1:54:61:78:55:fa:51:cd:7c:b9:44:db:0b:d2:20:69:2e:
         00:57:39:b6:b2:79:25:e7:50:f7:3b:2f:7a:30:bc:bb:f1:26:
         1f:0e:c7:3d:7f:e3:b5:9f:f9:d7:fa:9a:f0:7c:cd:32:3b:92:
         b6:c2:af:53:c3:74:eb:17:cb:21:cb:3c:f5:2a:f5:64:56:77:
         e3:d2:b8:05:47:5f:f8:28:a2:20:ff:5e:43:c3:fc:23:57:e9:
         ea:a5:6f:8f:fd:17:ff:99:48:3d:57:66:2a:b3:31:37:9b:3e:
         20:41:d5:b4:5b:8a:92:6f:5f:79:80:3d:7a:04:63:6d:a5:a5:
         8a:33:7c:4b:f4:68:ce:e3
-----BEGIN CERTIFICATE-----
MIIFbDCCA1SgAwIBAgIBAjANBgkqhkiG9w0BAQsFADCBvzELMAkGA1UEBhMCQ0Ex
GTAXBgNVBAgMEEJyaXRpc2ggQ29sdW1iaWExETAPBgNVBAcMCFZpY3RvcmlhMR8w
HQYDVQQKDBZVbml2ZXJzaXR5IG9mIFZpY3RvcmlhMSswKQYDVQQLDCJTY2hvb2wg
b2YgRWFydGggYW5kIE9jZWFuIFNjaWVuY2VzMRQwEgYDVQQDDAtKb2R5IEtseW1h
azEeMBwGCSqGSIb3DQEJARYPamtseW1ha0B1dmljLmNhMB4XDTE1MTEyNDE5Mjgy
NFoXDTE4MDgyMDE5MjgyNFowcjELMAkGA1UEBhMCQ0ExGTAXBgNVBAgMEEJyaXRp
c2ggQ29sdW1iaWExETAPBgNVBAcMCFZpY3RvcmlhMR8wHQYDVQQKDBZVbml2ZXJz
aXR5IG9mIFZpY3RvcmlhMRQwEgYDVQQDDAtKb2R5IEtseW1hazCCASIwDQYJKoZI
hvcNAQEBBQADggEPADCCAQoCggEBAM+dEuMpjDFgIy96rqqXVMlXy6CW30cnAmK6
VCdbQq91yf+SDypBKbc//GOEbZ//20RushILvISMMOIAG7IJ9GzoRw6ipoAqvcic
mmHldutDhFYoenZeWQUt0RQ8ays57/cpmV/cjyN+yL2OzrCWIs5M9Au0sAtJivCd
vnK6CBVAinphMA5xe9itZ3GTraEwGOoycrGHFxElnYV7WR36s02v2byFfWZp0a4I
4+JXQXbz1YEqsf8Qs3I9zOE+iT1y9Gh/QQ1xFI3vH9oOzXaiiyefOUxbGoIo7IeW
+BU7ZyognAvxeK1GlTMHbnwtFCZl+4BZP4A9eatisxqNcZFQbBMCAwEAAaOBvjCB
uzAdBgNVHQ4EFgQUBNNi8rTgTZCxpYyGEN/JVtpTmf8wHwYDVR0jBBgwFoAUmPQg
H7EwXeAYTfqCFU/IsuXjrP8wCQYDVR0TBAIwADALBgNVHQ8EBAMCBaAwMwYDVR0R
BCwwKoITdmFsZGV6LnNlb3MudXZpYy5jYYITaG9ybmJ5LnNlb3MudXZpYy5jYTAs
BglghkgBhvhCAQ0EHxYdT3BlblNTTCBHZW5lcmF0ZWQgQ2VydGlmaWNhdGUwDQYJ
KoZIhvcNAQELBQADggIBABM/L6OEGW8ACQ5kK3ud2OuhIJ/s5pKSDFqzqv6eq0he
hZmu/BKBEg5i/8zE0QTjiSvmoPNwvwxUcW5KHlvqfZD/XaZ66tkCNWH8Llk9aVcr
GOL0/y6MH+VDaSDn048C12yaIr+wO2VBgiKh+chNsTFPoSXJae3BVWUVq+Ox/xF4
Z1d0fn2W5d2sra5AAEWFq5OtMkGnkK0RbhSeEY8hEzWtvVp5wh48ThY7hwUDI1+V
1YvceoBHS5j5u0vQGtQVB+/NrPrkPMkcuzOfOOMRoWvEBz/Zd5f+EaJfIfax110U
QrjTyAvPkZGb5nRroxP2l4YJCrIJG5tn9vuMBnk4AVWRaPZ79WdyUaCfafWhJgLd
Vjz29mf3kI1IiZplCAdo7GhElqs6INXZCLziz4v8nuEeil/+Z/oGo1KhpKN/9cqz
IOsIvfN9AhdDtxTyRj2YYANzakbGFhAnk4KolJex6ZFXrt6vq7XZWWLxXpiTXx8i
CVycVgWg9ttzIfbxVGF4VfpRzXy5RNsL0iBpLgBXObayeSXnUPc7L3owvLvxJh8O
xz1/47Wf+df6mvB8zTI7krbCr1PDdOsXyyHLPPUq9WRWd+PSuAVHX/gooiD/XkPD
/CNX6eqlb4/9F/+ZSD1XZiqzMTebPiBB1bRbipJvX3mAPXoEY22lpYozfEv0aM7j
-----END CERTIFICATE-----
